target datalayout = "e-m:e-p270:32:32-p271:32:32-p272:64:64-i64:64-i128:128-f80:128-n8:16:32:64-S128"
target triple = "x86_64-pc-linux-gnu"

%struct.Gia_Obj_t_ = type <{ i64, i32 }>
%struct.Gia_Man_t_ = type { ptr, ptr, i32, i32, i32, i32, ptr, ptr, i32, i32, i32, ptr, ptr, %struct.Vec_Int_t_, %struct.Vec_Int_t_, i32, i32, i32, %struct.Vec_Int_t_, ptr, ptr, ptr, i32, i32, i32, i32, ptr, ptr, ptr, ptr, ptr, i32, i32, ptr, i32, ptr, ptr, ptr, ptr, ptr, ptr, ptr, ptr, ptr, ptr, ptr, ptr, ptr, ptr, ptr, ptr, ptr, ptr, %struct.Vec_Int_t_, %struct.Vec_Int_t_, ptr, ptr, ptr, ptr, ptr, ptr, ptr, ptr, ptr, ptr, ptr, ptr, ptr, ptr, ptr, ptr, ptr, ptr, ptr, ptr, ptr, i32, float, float, ptr, ptr, i32, ptr, ptr, ptr, ptr, ptr, ptr, ptr, ptr, ptr, ptr, ptr, ptr, ptr, ptr, ptr, i64, i64, ptr, ptr, i32, i32, i32, i32, i32, i32, i32, i32, i32, i32, i32, i32, ptr, ptr, ptr, ptr, ptr, ptr, ptr, ptr, i32, i32, i32, ptr, i32, i32, ptr, ptr, ptr, ptr, ptr, ptr, i32, i32, ptr, %struct.Vec_Int_t_, %struct.Vec_Int_t_, %struct.Vec_Int_t_, ptr, ptr, ptr, i32, i32, i32, i32, ptr, ptr, ptr, ptr, ptr }
%struct.Vec_Int_t_ = type { i32, i32, ptr }

; Function Attrs: inlinehint nounwind uwtable
define internal ptr @Gia_ManObj(ptr noundef %0, i32 noundef %1) #4 {
  %3 = alloca ptr, align 8
  %4 = alloca i32, align 4
  store ptr %0, ptr %3, align 8, !tbaa !13
  store i32 %1, ptr %4, align 4, !tbaa !12
  %5 = load ptr, ptr %3, align 8, !tbaa !13
  %6 = getelementptr inbounds nuw %struct.Gia_Man_t_, ptr %5, i32 0, i32 6
  %7 = load ptr, ptr %6, align 8, !tbaa !66
  %8 = load i32, ptr %4, align 4, !tbaa !12
  %9 = sext i32 %8 to i64
  %10 = getelementptr inbounds %struct.Gia_Obj_t_, ptr %7, i64 %9
  ret ptr %10
}

; Function Attrs: inlinehint nounwind uwtable
define internal i32 @Vec_IntEntry(ptr noundef %0, i32 noundef %1) #4 {
  %3 = alloca ptr, align 8
  %4 = alloca i32, align 4
  store ptr %0, ptr %3, align 8, !tbaa !62
  store i32 %1, ptr %4, align 4, !tbaa !12
  %5 = load ptr, ptr %3, align 8, !tbaa !62
  %6 = getelementptr inbounds nuw %struct.Vec_Int_t_, ptr %5, i32 0, i32 2
  %7 = load ptr, ptr %6, align 8, !tbaa !65
  %8 = load i32, ptr %4, align 4, !tbaa !12
  %9 = sext i32 %8 to i64
  %10 = getelementptr inbounds i32, ptr %7, i64 %9
  %11 = load i32, ptr %10, align 4, !tbaa !12
  ret i32 %11
}

; Function Attrs: inlinehint nounwind uwtable
define internal i32 @Vec_IntSize(ptr noundef %0) #4 {
  %2 = alloca ptr, align 8
  store ptr %0, ptr %2, align 8, !tbaa !62
  %3 = load ptr, ptr %2, align 8, !tbaa !62
  %4 = getelementptr inbounds nuw %struct.Vec_Int_t_, ptr %3, i32 0, i32 1
  %5 = load i32, ptr %4, align 4, !tbaa !63
  ret i32 %5
}

; Function Attrs: inlinehint nounwind uwtable
define internal void @Vec_IntClear(ptr noundef %0) #4 {
  %2 = alloca ptr, align 8
  store ptr %0, ptr %2, align 8, !tbaa !62
  %3 = load ptr, ptr %2, align 8, !tbaa !62
  %4 = getelementptr inbounds nuw %struct.Vec_Int_t_, ptr %3, i32 0, i32 1
  store i32 0, ptr %4, align 4, !tbaa !63
  ret void
}

; Function Attrs: nounwind uwtable
define void @Emb_ManCollectSuper(ptr noundef %0, ptr noundef %1, ptr noundef %2, ptr noundef %3) #0 {
  %5 = alloca ptr, align 8
  %6 = alloca ptr, align 8
  %7 = alloca ptr, align 8
  %8 = alloca ptr, align 8
  %9 = alloca i32, align 4
  %10 = alloca i32, align 4
  store ptr %0, ptr %5, align 8, !tbaa !13
  store ptr %1, ptr %6, align 8, !tbaa !51
  store ptr %2, ptr %7, align 8, !tbaa !62
  store ptr %3, ptr %8, align 8, !tbaa !62
  call void @llvm.lifetime.start.p0(i64 4, ptr %9) #12
  call void @llvm.lifetime.start.p0(i64 4, ptr %10) #12
  %11 = load ptr, ptr %7, align 8, !tbaa !62
  call void @Vec_IntClear(ptr noundef %11)
  %12 = load ptr, ptr %8, align 8, !tbaa !62
  call void @Vec_IntClear(ptr noundef %12)
  %13 = load ptr, ptr %6, align 8, !tbaa !51
  %14 = load i64, ptr %13, align 4
  %15 = and i64 %14, -1073741825
  %16 = or i64 %15, 0
  store i64 %16, ptr %13, align 4
  %17 = load ptr, ptr %5, align 8, !tbaa !13
  %18 = load ptr, ptr %6, align 8, !tbaa !51
  %19 = load ptr, ptr %7, align 8, !tbaa !62
  %20 = load ptr, ptr %8, align 8, !tbaa !62
  call void @Emb_ManCollectSuper_rec(ptr noundef %17, ptr noundef %18, ptr noundef %19, ptr noundef %20)
  %21 = load ptr, ptr %6, align 8, !tbaa !51
  %22 = load i64, ptr %21, align 4
  %23 = and i64 %22, -1073741825
  %24 = or i64 %23, 1073741824
  store i64 %24, ptr %21, align 4
  store i32 0, ptr %10, align 4, !tbaa !12
  br label %25

25:                                               ; preds = %43, %4
  %26 = load i32, ptr %10, align 4, !tbaa !12
  %27 = load ptr, ptr %8, align 8, !tbaa !62
  %28 = call i32 @Vec_IntSize(ptr noundef %27)
  %29 = icmp slt i32 %26, %28
  br i1 %29, label %30, label %34

30:                                               ; preds = %25
  %31 = load ptr, ptr %8, align 8, !tbaa !62
  %32 = load i32, ptr %10, align 4, !tbaa !12
  %33 = call i32 @Vec_IntEntry(ptr noundef %31, i32 noundef %32)
  store i32 %33, ptr %9, align 4, !tbaa !12
  br label %34

34:                                               ; preds = %30, %25
  %35 = phi i1 [ false, %25 ], [ true, %30 ]
  br i1 %35, label %36, label %46

36:                                               ; preds = %34
  %37 = load ptr, ptr %5, align 8, !tbaa !13
  %38 = load i32, ptr %9, align 4, !tbaa !12
  %39 = call ptr @Gia_ManObj(ptr noundef %37, i32 noundef %38)
  %40 = load i64, ptr %39, align 4
  %41 = and i64 %40, -4611686018427387905
  %42 = or i64 %41, 0
  store i64 %42, ptr %39, align 4
  br label %43

43:                                               ; preds = %36
  %44 = load i32, ptr %10, align 4, !tbaa !12
  %45 = add nsw i32 %44, 1
  store i32 %45, ptr %10, align 4, !tbaa !12
  br label %25, !llvm.loop !67

46:                                               ; preds = %34
  call void @llvm.lifetime.end.p0(i64 4, ptr %10) #12
  call void @llvm.lifetime.end.p0(i64 4, ptr %9) #12
  ret void
}