; Function Attrs: nounwind uwtable
define void @Emb_ManCollectSuper(ptr noundef readonly captures(none) %0, ptr noundef %1, ptr noundef captures(none) initializes((4, 8)) %2, ptr noundef captures(none) initializes((4, 8)) %3) local_unnamed_addr #1 {
  %5 = getelementptr inbounds nuw i8, ptr %2, i64 4
  store i32 0, ptr %5, align 4, !tbaa !39
  %6 = getelementptr inbounds nuw i8, ptr %3, i64 4
  store i32 0, ptr %6, align 4, !tbaa !39
  %7 = load i64, ptr %1, align 4
  %8 = and i64 %7, -1073741825
  store i64 %8, ptr %1, align 4
  tail call void @Emb_ManCollectSuper_rec(ptr noundef %0, ptr noundef nonnull %1, ptr noundef %2, ptr noundef %3)
  %9 = load i64, ptr %1, align 4
  %10 = or i64 %9, 1073741824
  store i64 %10, ptr %1, align 4
  %.val16 = load i32, ptr %6, align 4, !tbaa !39
  %11 = icmp sgt i32 %.val16, 0
  br i1 %11, label %.lr.ph, label %.critedge

.lr.ph:                                           ; preds = %4
  %12 = getelementptr i8, ptr %3, i64 8
  %13 = getelementptr i8, ptr %0, i64 32
  br label %14

14:                                               ; preds = %.lr.ph, %14
  %indvars.iv = phi i64 [ 0, %.lr.ph ], [ %indvars.iv.next, %14 ]
  %.val14 = load ptr, ptr %12, align 8, !tbaa !41
  %15 = getelementptr inbounds nuw i32, ptr %.val14, i64 %indvars.iv
  %16 = load i32, ptr %15, align 4, !tbaa !9
  %.val15 = load ptr, ptr %13, align 8, !tbaa !48
  %17 = sext i32 %16 to i64
  %18 = getelementptr inbounds %struct.Gia_Obj_t_, ptr %.val15, i64 %17
  %19 = load i64, ptr %18, align 4
  %20 = and i64 %19, -4611686018427387905
  store i64 %20, ptr %18, align 4
  %indvars.iv.next = add nuw nsw i64 %indvars.iv, 1
  %.val = load i32, ptr %6, align 4, !tbaa !39
  %21 = sext i32 %.val to i64
  %22 = icmp slt i64 %indvars.iv.next, %21
  br i1 %22, label %14, label %.critedge, !llvm.loop !60

.critedge:                                        ; preds = %14, %4
  ret void
}